(dp1
S'failed'
p2
(lp3
sS'source_names'
p4
(lp5
S'.'
aS'tests.py:TestSESMailer.test_message'
p6
asS'ids'
p7
(dp8
I1
(S'/Users/john.martin/.personal/flask-ses-mailer/tests.py'
S'tests'
S'TestSocketIO.test_connect'
tp9
sI2
(S'/Users/john.martin/.personal/flask-ses-mailer/tests.py'
S'tests'
S'TestSESMailer.test_connect'
tp10
sI3
(S'/Users/john.martin/.personal/flask-ses-mailer/tests.py'
S'tests'
S'TestSESMailer.test_message'
tp11
sI4
(S'/Users/john.martin/.personal/flask-ses-mailer/tests.py'
S'tests'
S'TestSESMailer.test_message_html'
tp12
sI5
(S'/Users/john.martin/.personal/flask-ses-mailer/tests.py'
S'tests'
S'TestSESMailer.test_message_invalid_body_type'
tp13
sI6
(S'/Users/john.martin/.personal/flask-ses-mailer/tests.py'
S'tests'
S'TestSESMailer.test_send'
tp14
sI7
(S'/Users/john.martin/.personal/flask-ses-mailer/tests.py'
S'tests'
S'TestSESMailer.test_destination'
tp15
ss.